cnumpy.core.multiarray
_reconstruct
p0
(cnumpy
ndarray
p1
(I0
tp2
S'b'
p3
tp4
Rp5
(I1
(I3
I1
tp6
cnumpy
dtype
p7
(S'f8'
p8
I0
I1
tp9
Rp10
(I3
S'<'
p11
NNNI-1
I-1
I0
tp12
bI00
S'"T\xfbAS\xb1\x98?\xe5\x1d)\x7fe\xdd\xe7\xbf(\x90\n\xf9\x18\xe1\xeb?'
p13
tp14
b.