cnumpy.core.multiarray
_reconstruct
p0
(cnumpy
ndarray
p1
(I0
tp2
S'b'
p3
tp4
Rp5
(I1
(I5
tp6
cnumpy
dtype
p7
(S'f4'
p8
I0
I1
tp9
Rp10
(I3
S'<'
p11
NNNI-1
I-1
I0
tp12
bI00
S'\xc1#\xe0\xbeZ\xc3\x84>\x14\xb0\x8c:\xa7\x8a\xc3\xb9B\x8f\xe1\xbd'
p13
tp14
b.