cnumpy.core.multiarray
_reconstruct
p0
(cnumpy
ndarray
p1
(I0
tp2
S'b'
p3
tp4
Rp5
(I1
(I3
I1
tp6
cnumpy
dtype
p7
(S'f8'
p8
I0
I1
tp9
Rp10
(I3
S'<'
p11
NNNI-1
I-1
I0
tp12
bI00
S'\x03\xc1\xa8\xe53\xf9W\xc0\x96\xf5w`\xcf\x90\x85\xc0{\xb5od\xbfq\x8c@'
p13
tp14
b.