cnumpy.core.multiarray
_reconstruct
p0
(cnumpy
ndarray
p1
(I0
tp2
S'b'
p3
tp4
Rp5
(I1
(I3
I1
tp6
cnumpy
dtype
p7
(S'f8'
p8
I0
I1
tp9
Rp10
(I3
S'<'
p11
NNNI-1
I-1
I0
tp12
bI00
S'\xe3\xdf\xc4)\x01\x12X\xc0%;;\xc5\x9f\xc0\x85\xc0\x1a\x8b\xe1Y7V\x8c@'
p13
tp14
b.